target datalayout = "e-m:e-p270:32:32-p271:32:32-p272:64:64-i64:64-i128:128-f80:128-n8:16:32:64-S128"
target triple = "x86_64-pc-linux-gnu"

%class.vector = type { ptr }
%"class.sat::clause" = type { i32, i32, i32, %class.approx_set_tpl, i32, [0 x %"class.sat::literal"] }
%class.approx_set_tpl = type { i32 }
%"class.sat::literal" = type { i32 }
%"class.sat::clause_use_list::iterator" = type <{ ptr, i32, i32, i32, [4 x i8] }>

; Function Attrs: mustprogress nounwind uwtable
define linkonce_odr hidden noundef zeroext i1 @_ZNK3sat6clause11was_removedEv(ptr noundef nonnull align 4 dereferenceable(20) %0) #6 comdat align 2 {
  %2 = alloca ptr, align 8
  store ptr %0, ptr %2, align 8, !tbaa !15
  %3 = load ptr, ptr %2, align 8
  %4 = getelementptr inbounds nuw %"class.sat::clause", ptr %3, i32 0, i32 4
  %5 = load i32, ptr %4, align 4
  %6 = lshr i32 %5, 1
  %7 = and i32 %6, 1
  %8 = icmp ne i32 %7, 0
  ret i1 %8
}

; Function Attrs: mustprogress nounwind uwtable
define linkonce_odr hidden noundef nonnull align 8 dereferenceable(8) ptr @_ZN6vectorIPN3sat6clauseELb0EjEixEj(ptr noundef nonnull align 8 dereferenceable(8) %0, i32 noundef %1) #6 comdat align 2 {
  %3 = alloca ptr, align 8
  %4 = alloca i32, align 4
  store ptr %0, ptr %3, align 8, !tbaa !22
  store i32 %1, ptr %4, align 4, !tbaa !8
  %5 = load ptr, ptr %3, align 8
  %6 = getelementptr inbounds nuw %class.vector, ptr %5, i32 0, i32 0
  %7 = load ptr, ptr %6, align 8, !tbaa !24
  %8 = load i32, ptr %4, align 4, !tbaa !8
  %9 = zext i32 %8 to i64
  %10 = getelementptr inbounds nuw ptr, ptr %7, i64 %9
  ret ptr %10
}

; Function Attrs: mustprogress uwtable
define hidden void @_ZN3sat15clause_use_list8iterator7consumeEv(ptr noundef nonnull align 8 dereferenceable(20) %0) #4 align 2 {
  %2 = alloca ptr, align 8
  store ptr %0, ptr %2, align 8, !tbaa !25
  %3 = load ptr, ptr %2, align 8
  br label %4

4:                                                ; preds = %1, %31
  %5 = getelementptr inbounds nuw %"class.sat::clause_use_list::iterator", ptr %3, i32 0, i32 2
  %6 = load i32, ptr %5, align 4, !tbaa !27
  %7 = getelementptr inbounds nuw %"class.sat::clause_use_list::iterator", ptr %3, i32 0, i32 1
  %8 = load i32, ptr %7, align 8, !tbaa !29
  %9 = icmp eq i32 %6, %8
  br i1 %9, label %10, label %11

10:                                               ; preds = %4
  br label %35

11:                                               ; preds = %4
  %12 = getelementptr inbounds nuw %"class.sat::clause_use_list::iterator", ptr %3, i32 0, i32 0
  %13 = load ptr, ptr %12, align 8, !tbaa !30
  %14 = getelementptr inbounds nuw %"class.sat::clause_use_list::iterator", ptr %3, i32 0, i32 2
  %15 = load i32, ptr %14, align 4, !tbaa !27
  %16 = call noundef nonnull align 8 dereferenceable(8) ptr @_ZN6vectorIPN3sat6clauseELb0EjEixEj(ptr noundef nonnull align 8 dereferenceable(8) %13, i32 noundef %15)
  %17 = load ptr, ptr %16, align 8, !tbaa !15
  %18 = call noundef zeroext i1 @_ZNK3sat6clause11was_removedEv(ptr noundef nonnull align 4 dereferenceable(20) %17)
  br i1 %18, label %31, label %19

19:                                               ; preds = %11
  %20 = getelementptr inbounds nuw %"class.sat::clause_use_list::iterator", ptr %3, i32 0, i32 0
  %21 = load ptr, ptr %20, align 8, !tbaa !30
  %22 = getelementptr inbounds nuw %"class.sat::clause_use_list::iterator", ptr %3, i32 0, i32 2
  %23 = load i32, ptr %22, align 4, !tbaa !27
  %24 = call noundef nonnull align 8 dereferenceable(8) ptr @_ZN6vectorIPN3sat6clauseELb0EjEixEj(ptr noundef nonnull align 8 dereferenceable(8) %21, i32 noundef %23)
  %25 = load ptr, ptr %24, align 8, !tbaa !15
  %26 = getelementptr inbounds nuw %"class.sat::clause_use_list::iterator", ptr %3, i32 0, i32 0
  %27 = load ptr, ptr %26, align 8, !tbaa !30
  %28 = getelementptr inbounds nuw %"class.sat::clause_use_list::iterator", ptr %3, i32 0, i32 3
  %29 = load i32, ptr %28, align 8, !tbaa !31
  %30 = call noundef nonnull align 8 dereferenceable(8) ptr @_ZN6vectorIPN3sat6clauseELb0EjEixEj(ptr noundef nonnull align 8 dereferenceable(8) %27, i32 noundef %29)
  store ptr %25, ptr %30, align 8, !tbaa !15
  br label %35

31:                                               ; preds = %11
  %32 = getelementptr inbounds nuw %"class.sat::clause_use_list::iterator", ptr %3, i32 0, i32 2
  %33 = load i32, ptr %32, align 4, !tbaa !27
  %34 = add i32 %33, 1
  store i32 %34, ptr %32, align 4, !tbaa !27
  br label %4, !llvm.loop !32

35:                                               ; preds = %19, %10
  ret void
}

; Function Attrs: noinline noreturn nounwind uwtable
define linkonce_odr hidden void @__clang_call_terminate(ptr noundef %0) #7 comdat {
  %2 = call ptr @__cxa_begin_catch(ptr %0) #3
  call void @_ZSt9terminatev() #8
  unreachable
}

; Function Attrs: mustprogress nounwind uwtable
define linkonce_odr hidden void @_ZN6vectorIPN3sat6clauseELb0EjE6shrinkEj(ptr noundef nonnull align 8 dereferenceable(8) %0, i32 noundef %1) #6 comdat align 2 {
  %3 = alloca ptr, align 8
  %4 = alloca i32, align 4
  store ptr %0, ptr %3, align 8, !tbaa !22
  store i32 %1, ptr %4, align 4, !tbaa !8
  %5 = load ptr, ptr %3, align 8
  %6 = getelementptr inbounds nuw %class.vector, ptr %5, i32 0, i32 0
  %7 = load ptr, ptr %6, align 8, !tbaa !24
  %8 = icmp ne ptr %7, null
  br i1 %8, label %9, label %14

9:                                                ; preds = %2
  %10 = load i32, ptr %4, align 4, !tbaa !8
  %11 = getelementptr inbounds nuw %class.vector, ptr %5, i32 0, i32 0
  %12 = load ptr, ptr %11, align 8, !tbaa !24
  %13 = getelementptr inbounds i32, ptr %12, i64 -1
  store i32 %10, ptr %13, align 4, !tbaa !8
  br label %15

14:                                               ; preds = %2
  br label %15

15:                                               ; preds = %14, %9
  ret void
}

; Function Attrs: mustprogress uwtable
define linkonce_odr hidden void @_ZN3sat15clause_use_list8iterator4nextEv(ptr noundef nonnull align 8 dereferenceable(20) %0) #4 comdat align 2 {
  %2 = alloca ptr, align 8
  store ptr %0, ptr %2, align 8, !tbaa !25
  %3 = load ptr, ptr %2, align 8
  %4 = getelementptr inbounds nuw %"class.sat::clause_use_list::iterator", ptr %3, i32 0, i32 2
  %5 = load i32, ptr %4, align 4, !tbaa !27
  %6 = add i32 %5, 1
  store i32 %6, ptr %4, align 4, !tbaa !27
  %7 = getelementptr inbounds nuw %"class.sat::clause_use_list::iterator", ptr %3, i32 0, i32 3
  %8 = load i32, ptr %7, align 8, !tbaa !31
  %9 = add i32 %8, 1
  store i32 %9, ptr %7, align 8, !tbaa !31
  call void @_ZN3sat15clause_use_list8iterator7consumeEv(ptr noundef nonnull align 8 dereferenceable(20) %3)
  ret void
}

; Function Attrs: mustprogress nounwind uwtable
define hidden void @_ZN3sat15clause_use_list8iteratorD2Ev(ptr noundef nonnull align 8 dereferenceable(20) %0) unnamed_addr #6 align 2 personality ptr @__gxx_personality_v0 {
  %2 = alloca ptr, align 8
  store ptr %0, ptr %2, align 8, !tbaa !25
  %3 = load ptr, ptr %2, align 8
  br label %4

4:                                                ; preds = %11, %1
  %5 = getelementptr inbounds nuw %"class.sat::clause_use_list::iterator", ptr %3, i32 0, i32 2
  %6 = load i32, ptr %5, align 4, !tbaa !27
  %7 = getelementptr inbounds nuw %"class.sat::clause_use_list::iterator", ptr %3, i32 0, i32 1
  %8 = load i32, ptr %7, align 8, !tbaa !29
  %9 = icmp ult i32 %6, %8
  br i1 %9, label %10, label %12

10:                                               ; preds = %4
  invoke void @_ZN3sat15clause_use_list8iterator4nextEv(ptr noundef nonnull align 8 dereferenceable(20) %3)
          to label %11 unwind label %18

11:                                               ; preds = %10
  br label %4, !llvm.loop !34

12:                                               ; preds = %4
  %13 = getelementptr inbounds nuw %"class.sat::clause_use_list::iterator", ptr %3, i32 0, i32 0
  %14 = load ptr, ptr %13, align 8, !tbaa !30
  %15 = getelementptr inbounds nuw %"class.sat::clause_use_list::iterator", ptr %3, i32 0, i32 3
  %16 = load i32, ptr %15, align 8, !tbaa !31
  invoke void @_ZN6vectorIPN3sat6clauseELb0EjE6shrinkEj(ptr noundef nonnull align 8 dereferenceable(8) %14, i32 noundef %16)
          to label %17 unwind label %18

17:                                               ; preds = %12
  ret void

18:                                               ; preds = %12, %10
  %19 = landingpad { ptr, i32 }
          catch ptr null
  %20 = extractvalue { ptr, i32 } %19, 0
  call void @__clang_call_terminate(ptr %20) #8
  unreachable
}