; Function Attrs: mustprogress nofree norecurse nosync nounwind memory(readwrite, inaccessiblemem: none) uwtable
define hidden void @_ZN3sat15clause_use_list8iteratorD2Ev(ptr noundef nonnull align 8 captures(none) dereferenceable(20) %0) unnamed_addr #4 align 2 personality ptr @__gxx_personality_v0 {
  %2 = getelementptr inbounds nuw i8, ptr %0, i64 12
  %3 = getelementptr inbounds nuw i8, ptr %0, i64 8
  %4 = load i32, ptr %3, align 8, !tbaa !18
  %.promoted = load i32, ptr %2, align 4, !tbaa !21
  %5 = icmp ult i32 %.promoted, %4
  %.pre10 = load ptr, ptr %0, align 8, !tbaa !22
  br i1 %5, label %.lr.ph, label %._crit_edge

.lr.ph:                                           ; preds = %1
  %6 = getelementptr inbounds nuw i8, ptr %0, i64 16
  %.promoted5 = load i32, ptr %6, align 8, !tbaa !23
  br label %7

7:                                                ; preds = %.lr.ph, %_ZN3sat15clause_use_list8iterator4nextEv.exit
  %8 = phi i32 [ %.promoted5, %.lr.ph ], [ %11, %_ZN3sat15clause_use_list8iterator4nextEv.exit ]
  %9 = phi i32 [ %.promoted, %.lr.ph ], [ %15, %_ZN3sat15clause_use_list8iterator4nextEv.exit ]
  %10 = add nuw i32 %9, 1
  store i32 %10, ptr %2, align 4, !tbaa !21
  %11 = add i32 %8, 1
  store i32 %11, ptr %6, align 8, !tbaa !23
  %12 = icmp eq i32 %10, %4
  br i1 %12, label %._crit_edge, label %.lr.ph.i.i

.lr.ph.i.i:                                       ; preds = %7
  %13 = load ptr, ptr %.pre10, align 8, !tbaa !3
  br label %14

14:                                               ; preds = %22, %.lr.ph.i.i
  %15 = phi i32 [ %10, %.lr.ph.i.i ], [ %23, %22 ]
  %16 = zext i32 %15 to i64
  %17 = getelementptr inbounds nuw ptr, ptr %13, i64 %16
  %18 = load ptr, ptr %17, align 8, !tbaa !15
  %19 = getelementptr inbounds nuw i8, ptr %18, i64 16
  %20 = load i32, ptr %19, align 4
  %21 = and i32 %20, 2
  %.not.i.i = icmp eq i32 %21, 0
  br i1 %.not.i.i, label %_ZN3sat15clause_use_list8iterator4nextEv.exit, label %22

22:                                               ; preds = %14
  %23 = add i32 %15, 1
  store i32 %23, ptr %2, align 4, !tbaa !21
  %24 = icmp eq i32 %23, %4
  br i1 %24, label %._crit_edge, label %14, !llvm.loop !24

_ZN3sat15clause_use_list8iterator4nextEv.exit:    ; preds = %14
  %25 = zext i32 %11 to i64
  %26 = getelementptr inbounds nuw ptr, ptr %13, i64 %25
  store ptr %18, ptr %26, align 8, !tbaa !15
  %27 = icmp ult i32 %15, %4
  br i1 %27, label %7, label %._crit_edge

._crit_edge:                                      ; preds = %7, %_ZN3sat15clause_use_list8iterator4nextEv.exit, %22, %1
  %28 = load ptr, ptr %.pre10, align 8, !tbaa !3
  %.not.i = icmp eq ptr %28, null
  br i1 %.not.i, label %_ZN6vectorIPN3sat6clauseELb0EjE6shrinkEj.exit, label %29

29:                                               ; preds = %._crit_edge
  %30 = getelementptr inbounds nuw i8, ptr %0, i64 16
  %31 = load i32, ptr %30, align 8, !tbaa !23
  %32 = getelementptr inbounds i8, ptr %28, i64 -4
  store i32 %31, ptr %32, align 4, !tbaa !10
  br label %_ZN6vectorIPN3sat6clauseELb0EjE6shrinkEj.exit

_ZN6vectorIPN3sat6clauseELb0EjE6shrinkEj.exit:    ; preds = %._crit_edge, %29
  ret void
}